; Function Attrs: mustprogress nounwind uwtable
define internal noundef zeroext i1 @_ZN12_GLOBAL__N_113X86PassConfig10addPreISelEv(ptr noundef nonnull align 8 dereferenceable(134) %0) unnamed_addr #0 align 2 {
  %2 = getelementptr inbounds nuw i8, ptr %0, i64 112
  %3 = load ptr, ptr %2, align 8
  %4 = getelementptr inbounds i8, ptr %3, i64 572
  %5 = load i32, ptr %4, align 4
  %6 = icmp eq i32 %5, 14
  br i1 %6, label %7, label %13

7:                                                ; preds = %1
  %8 = getelementptr inbounds i8, ptr %3, i64 560
  %9 = load i32, ptr %8, align 8
  %10 = icmp eq i32 %9, 37
  br i1 %10, label %11, label %13

11:                                               ; preds = %7
  %12 = tail call noundef ptr @_ZN4llvm23createX86WinEHStatePassEv() #21
  tail call void @_ZN4llvm16TargetPassConfig7addPassEPNS_4PassE(ptr noundef nonnull align 8 dereferenceable(134) %0, ptr noundef %12) #21
  br label %13

13:                                               ; preds = %11, %7, %1
  ret i1 true
}